target datalayout = "e-m:e-p270:32:32-p271:32:32-p272:64:64-i64:64-i128:128-f80:128-n8:16:32:64-S128"
target triple = "x86_64-pc-linux-gnu"

%struct.AVFormatContext = type { ptr, ptr, ptr, ptr, ptr, i32, i32, ptr, i32, ptr, i32, ptr, ptr, i64, i64, i64, i32, i32, i32, i64, i64, ptr, i32, i32, ptr, i32, i32, i32, i32, ptr, i64, i32, i32, %struct.AVIOInterruptCB, i32, i32, i32, i32, i64, i32, i32, i32, i32, i32, i32, i32, i32, i32, i32, i32, i32, i64, i32, i32, i32, i32, i32, ptr, ptr, ptr, ptr, i32, ptr, ptr, ptr, ptr, i32, ptr, ptr, i64, ptr, ptr, ptr, i64 }
%struct.AVIOInterruptCB = type { ptr, ptr }
%struct.WebMChunkContext = type { ptr, ptr, i32, i32, ptr, i64, i64, ptr, i32 }

; Function Attrs: nounwind uwtable
define internal void @webm_chunk_deinit(ptr noundef %0) #0 {
  %2 = alloca ptr, align 8
  %3 = alloca ptr, align 8
  %4 = alloca i32, align 4
  store ptr %0, ptr %2, align 8, !tbaa !4
  call void @llvm.lifetime.start.p0(i64 8, ptr %3) #6
  %5 = load ptr, ptr %2, align 8, !tbaa !4
  %6 = getelementptr inbounds nuw %struct.AVFormatContext, ptr %5, i32 0, i32 3
  %7 = load ptr, ptr %6, align 8, !tbaa !9
  store ptr %7, ptr %3, align 8, !tbaa !26
  %8 = load ptr, ptr %3, align 8, !tbaa !26
  %9 = getelementptr inbounds nuw %struct.WebMChunkContext, ptr %8, i32 0, i32 7
  %10 = load ptr, ptr %9, align 8, !tbaa !28
  %11 = icmp ne ptr %10, null
  br i1 %11, label %13, label %12

12:                                               ; preds = %1
  store i32 1, ptr %4, align 4
  br label %36

13:                                               ; preds = %1
  %14 = load ptr, ptr %3, align 8, !tbaa !26
  %15 = getelementptr inbounds nuw %struct.WebMChunkContext, ptr %14, i32 0, i32 8
  %16 = load i32, ptr %15, align 8, !tbaa !52
  %17 = icmp ne i32 %16, 0
  br i1 %17, label %18, label %23

18:                                               ; preds = %13
  %19 = load ptr, ptr %3, align 8, !tbaa !26
  %20 = getelementptr inbounds nuw %struct.WebMChunkContext, ptr %19, i32 0, i32 7
  %21 = load ptr, ptr %20, align 8, !tbaa !28
  %22 = getelementptr inbounds nuw %struct.AVFormatContext, ptr %21, i32 0, i32 4
  call void @ffio_free_dyn_buf(ptr noundef %22)
  br label %30

23:                                               ; preds = %13
  %24 = load ptr, ptr %2, align 8, !tbaa !4
  %25 = load ptr, ptr %3, align 8, !tbaa !26
  %26 = getelementptr inbounds nuw %struct.WebMChunkContext, ptr %25, i32 0, i32 7
  %27 = load ptr, ptr %26, align 8, !tbaa !28
  %28 = getelementptr inbounds nuw %struct.AVFormatContext, ptr %27, i32 0, i32 4
  %29 = call i32 @ff_format_io_close(ptr noundef %24, ptr noundef %28)
  br label %30

30:                                               ; preds = %23, %18
  %31 = load ptr, ptr %3, align 8, !tbaa !26
  %32 = getelementptr inbounds nuw %struct.WebMChunkContext, ptr %31, i32 0, i32 7
  %33 = load ptr, ptr %32, align 8, !tbaa !28
  call void @avformat_free_context(ptr noundef %33)
  %34 = load ptr, ptr %3, align 8, !tbaa !26
  %35 = getelementptr inbounds nuw %struct.WebMChunkContext, ptr %34, i32 0, i32 7
  store ptr null, ptr %35, align 8, !tbaa !28
  store i32 0, ptr %4, align 4
  br label %36

36:                                               ; preds = %30, %12
  call void @llvm.lifetime.end.p0(i64 8, ptr %3) #6
  %37 = load i32, ptr %4, align 4
  switch i32 %37, label %39 [
    i32 0, label %38
    i32 1, label %38
  ]

38:                                               ; preds = %36, %36
  ret void

39:                                               ; preds = %36
  unreachable
}