; Function Attrs: nounwind uwtable
define internal void @webm_chunk_deinit(ptr noundef %0) #0 {
  %2 = getelementptr inbounds nuw i8, ptr %0, i64 24
  %3 = load ptr, ptr %2, align 8, !tbaa !4
  %4 = getelementptr inbounds nuw i8, ptr %3, i64 48
  %5 = load ptr, ptr %4, align 8, !tbaa !24
  %.not = icmp eq ptr %5, null
  br i1 %.not, label %15, label %6

6:                                                ; preds = %1
  %7 = getelementptr inbounds nuw i8, ptr %3, i64 56
  %8 = load i32, ptr %7, align 8, !tbaa !48
  %.not8 = icmp eq i32 %8, 0
  %9 = getelementptr inbounds nuw i8, ptr %5, i64 32
  br i1 %.not8, label %11, label %10

10:                                               ; preds = %6
  tail call void @ffio_free_dyn_buf(ptr noundef nonnull %9) #6
  br label %13

11:                                               ; preds = %6
  %12 = tail call i32 @ff_format_io_close(ptr noundef nonnull %0, ptr noundef nonnull %9) #6
  br label %13

13:                                               ; preds = %11, %10
  %14 = load ptr, ptr %4, align 8, !tbaa !24
  tail call void @avformat_free_context(ptr noundef %14) #6
  store ptr null, ptr %4, align 8, !tbaa !24
  br label %15

15:                                               ; preds = %1, %13
  ret void
}